target datalayout = "e-m:e-p270:32:32-p271:32:32-p272:64:64-i64:64-i128:128-f80:128-n8:16:32:64-S128"
target triple = "x86_64-pc-linux-gnu"

%struct.Cnf_Dat_t_ = type { ptr, i32, i32, i32, ptr, ptr, ptr, ptr, ptr, ptr }

; Function Attrs: nounwind uwtable
define ptr @Gia_ManSat3Init(ptr noundef %0) #0 {
  %2 = alloca ptr, align 8
  %3 = alloca ptr, align 8
  %4 = alloca ptr, align 8
  %5 = alloca i32, align 4
  %6 = alloca i32, align 4
  store ptr %0, ptr %3, align 8, !tbaa !3
  call void @llvm.lifetime.start.p0(i64 8, ptr %4) #7
  %7 = call ptr @sat_solver3_new()
  store ptr %7, ptr %4, align 8, !tbaa !8
  call void @llvm.lifetime.start.p0(i64 4, ptr %5) #7
  store i32 0, ptr %5, align 4, !tbaa !10
  br label %8

8:                                                ; preds = %36, %1
  %9 = load i32, ptr %5, align 4, !tbaa !10
  %10 = load ptr, ptr %3, align 8, !tbaa !3
  %11 = getelementptr inbounds nuw %struct.Cnf_Dat_t_, ptr %10, i32 0, i32 3
  %12 = load i32, ptr %11, align 8, !tbaa !12
  %13 = icmp slt i32 %9, %12
  br i1 %13, label %14, label %39

14:                                               ; preds = %8
  %15 = load ptr, ptr %4, align 8, !tbaa !8
  %16 = load ptr, ptr %3, align 8, !tbaa !3
  %17 = getelementptr inbounds nuw %struct.Cnf_Dat_t_, ptr %16, i32 0, i32 4
  %18 = load ptr, ptr %17, align 8, !tbaa !19
  %19 = load i32, ptr %5, align 4, !tbaa !10
  %20 = sext i32 %19 to i64
  %21 = getelementptr inbounds ptr, ptr %18, i64 %20
  %22 = load ptr, ptr %21, align 8, !tbaa !20
  %23 = load ptr, ptr %3, align 8, !tbaa !3
  %24 = getelementptr inbounds nuw %struct.Cnf_Dat_t_, ptr %23, i32 0, i32 4
  %25 = load ptr, ptr %24, align 8, !tbaa !19
  %26 = load i32, ptr %5, align 4, !tbaa !10
  %27 = add nsw i32 %26, 1
  %28 = sext i32 %27 to i64
  %29 = getelementptr inbounds ptr, ptr %25, i64 %28
  %30 = load ptr, ptr %29, align 8, !tbaa !20
  %31 = call i32 @sat_solver3_addclause(ptr noundef %15, ptr noundef %22, ptr noundef %30)
  %32 = icmp ne i32 %31, 0
  br i1 %32, label %35, label %33

33:                                               ; preds = %14
  %34 = load ptr, ptr %4, align 8, !tbaa !8
  call void @sat_solver3_delete(ptr noundef %34)
  store ptr null, ptr %2, align 8
  store i32 1, ptr %6, align 4
  br label %41

35:                                               ; preds = %14
  br label %36

36:                                               ; preds = %35
  %37 = load i32, ptr %5, align 4, !tbaa !10
  %38 = add nsw i32 %37, 1
  store i32 %38, ptr %5, align 4, !tbaa !10
  br label %8, !llvm.loop !21

39:                                               ; preds = %8
  %40 = load ptr, ptr %4, align 8, !tbaa !8
  store ptr %40, ptr %2, align 8
  store i32 1, ptr %6, align 4
  br label %41

41:                                               ; preds = %39, %33
  call void @llvm.lifetime.end.p0(i64 4, ptr %5) #7
  call void @llvm.lifetime.end.p0(i64 8, ptr %4) #7
  %42 = load ptr, ptr %2, align 8
  ret ptr %42
}

; Function Attrs: nounwind uwtable
define ptr @Gia_ManSat3Create(ptr noundef %0) #0 {
  %2 = alloca ptr, align 8
  %3 = alloca ptr, align 8
  %4 = alloca ptr, align 8
  %5 = alloca ptr, align 8
  %6 = alloca i32, align 4
  %7 = alloca i32, align 4
  store ptr %0, ptr %3, align 8, !tbaa !28
  call void @llvm.lifetime.start.p0(i64 8, ptr %4) #7
  %8 = load ptr, ptr %3, align 8, !tbaa !28
  %9 = call ptr @Mf_ManGenerateCnf(ptr noundef %8, i32 noundef 8, i32 noundef 0, i32 noundef 1, i32 noundef 0, i32 noundef 0)
  store ptr %9, ptr %4, align 8, !tbaa !3
  call void @llvm.lifetime.start.p0(i64 8, ptr %5) #7
  %10 = load ptr, ptr %4, align 8, !tbaa !3
  %11 = call ptr @Gia_ManSat3Init(ptr noundef %10)
  store ptr %11, ptr %5, align 8, !tbaa !8
  call void @llvm.lifetime.start.p0(i64 4, ptr %6) #7
  %12 = load ptr, ptr %5, align 8, !tbaa !8
  %13 = icmp ne ptr %12, null
  br i1 %13, label %14, label %17

14:                                               ; preds = %1
  %15 = load ptr, ptr %5, align 8, !tbaa !8
  %16 = call i32 @sat_solver3_simplify(ptr noundef %15)
  br label %18

17:                                               ; preds = %1
  br label %18

18:                                               ; preds = %17, %14
  %19 = phi i32 [ %16, %14 ], [ 0, %17 ]
  store i32 %19, ptr %6, align 4, !tbaa !10
  %20 = load ptr, ptr %4, align 8, !tbaa !3
  call void @Cnf_DataFree(ptr noundef %20)
  %21 = load i32, ptr %6, align 4, !tbaa !10
  %22 = icmp ne i32 %21, 0
  br i1 %22, label %23, label %25

23:                                               ; preds = %18
  %24 = load ptr, ptr %5, align 8, !tbaa !8
  store ptr %24, ptr %2, align 8
  store i32 1, ptr %7, align 4
  br label %31

25:                                               ; preds = %18
  %26 = load ptr, ptr %5, align 8, !tbaa !8
  %27 = icmp ne ptr %26, null
  br i1 %27, label %28, label %30

28:                                               ; preds = %25
  %29 = load ptr, ptr %5, align 8, !tbaa !8
  call void @sat_solver3_delete(ptr noundef %29)
  br label %30

30:                                               ; preds = %28, %25
  store ptr null, ptr %2, align 8
  store i32 1, ptr %7, align 4
  br label %31

31:                                               ; preds = %30, %23
  call void @llvm.lifetime.end.p0(i64 4, ptr %6) #7
  call void @llvm.lifetime.end.p0(i64 8, ptr %5) #7
  call void @llvm.lifetime.end.p0(i64 8, ptr %4) #7
  %32 = load ptr, ptr %2, align 8
  ret ptr %32
}