; Function Attrs: nounwind uwtable
define ptr @Gia_ManSat3Create(ptr noundef %0) local_unnamed_addr #0 {
  %2 = tail call ptr @Mf_ManGenerateCnf(ptr noundef %0, i32 noundef 8, i32 noundef 0, i32 noundef 1, i32 noundef 0, i32 noundef 0) #9
  %3 = tail call ptr @sat_solver3_new() #9
  %4 = getelementptr inbounds nuw i8, ptr %2, i64 16
  %5 = getelementptr inbounds nuw i8, ptr %2, i64 24
  br label %6

6:                                                ; preds = %10, %1
  %indvars.iv.i = phi i64 [ %indvars.iv.next.i, %10 ], [ 0, %1 ]
  %7 = load i32, ptr %4, align 8, !tbaa !3
  %8 = sext i32 %7 to i64
  %9 = icmp slt i64 %indvars.iv.i, %8
  br i1 %9, label %10, label %Gia_ManSat3Init.exit

10:                                               ; preds = %6
  %11 = load ptr, ptr %5, align 8, !tbaa !14
  %12 = getelementptr inbounds nuw ptr, ptr %11, i64 %indvars.iv.i
  %13 = load ptr, ptr %12, align 8, !tbaa !15
  %indvars.iv.next.i = add nuw nsw i64 %indvars.iv.i, 1
  %14 = getelementptr inbounds nuw ptr, ptr %11, i64 %indvars.iv.next.i
  %15 = load ptr, ptr %14, align 8, !tbaa !15
  %16 = tail call i32 @sat_solver3_addclause(ptr noundef %3, ptr noundef %13, ptr noundef %15) #9
  %.not.i = icmp eq i32 %16, 0
  br i1 %.not.i, label %Gia_ManSat3Init.exit.thread, label %6, !llvm.loop !16

Gia_ManSat3Init.exit.thread:                      ; preds = %10
  tail call void @sat_solver3_delete(ptr noundef %3) #9
  br label %.critedge

Gia_ManSat3Init.exit:                             ; preds = %6
  %.not = icmp eq ptr %3, null
  br i1 %.not, label %.critedge, label %17

17:                                               ; preds = %Gia_ManSat3Init.exit
  %18 = tail call i32 @sat_solver3_simplify(ptr noundef nonnull %3) #9
  %.not14 = icmp eq i32 %18, 0
  tail call void @Cnf_DataFree(ptr noundef nonnull %2) #9
  br i1 %.not14, label %19, label %20

.critedge:                                        ; preds = %Gia_ManSat3Init.exit.thread, %Gia_ManSat3Init.exit
  tail call void @Cnf_DataFree(ptr noundef nonnull %2) #9
  br label %20

19:                                               ; preds = %17
  tail call void @sat_solver3_delete(ptr noundef nonnull %3) #9
  br label %20

20:                                               ; preds = %.critedge, %17, %19
  %.0 = phi ptr [ %3, %17 ], [ null, %19 ], [ null, %.critedge ]
  ret ptr %.0
}